target datalayout = "e-m:e-p270:32:32-p271:32:32-p272:64:64-i64:64-i128:128-f80:128-n8:16:32:64-S128"
target triple = "x86_64-pc-linux-gnu"

%union.pthread_mutex_t = type { %struct.__pthread_mutex_s }
%struct.__pthread_mutex_s = type { i32, i32, i32, i32, i32, i16, i16, %struct.__pthread_internal_list }
%struct.__pthread_internal_list = type { ptr, ptr }
%struct.wolfSSL_RefWithMutex = type { %union.pthread_mutex_t, i32 }
%struct.WOLFSSL_CERT_MANAGER = type { [11 x ptr], ptr, ptr, ptr, ptr, ptr, ptr, ptr, ptr, ptr, ptr, ptr, ptr, %union.pthread_mutex_t, i8, i16, i16, %struct.wolfSSL_RefWithMutex }
%struct.WOLFSSL_CTX = type <{ ptr, %struct.wolfSSL_RefWithMutex, i32, [4 x i8], %struct.WOLFSSL_BUFFER_INFO, %struct.WOLFSSL_BUFFER_INFO, ptr, ptr, i32, [4 x i8], ptr, i8, i8, [2 x i8], i32, i32, [4 x i8], ptr, ptr, ptr, i8, i16, i8, i8, i8, i16, i16, i16, i16, [2 x i8], i64, ptr, ptr, ptr, ptr, i32, i32, i16, [2 x i8], i32, [10 x i16], i8, [3 x i8], ptr, ptr, i32, [4 x i8], ptr, i8, [7 x i8] }>
%struct.WOLFSSL_BUFFER_INFO = type { ptr, i32 }

; Function Attrs: nounwind uwtable
define i32 @wolfSSL_CTX_SetMinRsaKey_Sz(ptr noundef %0, i16 noundef signext %1) #0 {
  %3 = alloca i32, align 4
  %4 = alloca ptr, align 8
  %5 = alloca i16, align 2
  store ptr %0, ptr %4, align 8, !tbaa !24
  store i16 %1, ptr %5, align 2, !tbaa !94
  %6 = load ptr, ptr %4, align 8, !tbaa !24
  %7 = icmp eq ptr %6, null
  br i1 %7, label %17, label %8

8:                                                ; preds = %2
  %9 = load i16, ptr %5, align 2, !tbaa !94
  %10 = sext i16 %9 to i32
  %11 = icmp slt i32 %10, 0
  br i1 %11, label %17, label %12

12:                                               ; preds = %8
  %13 = load i16, ptr %5, align 2, !tbaa !94
  %14 = sext i16 %13 to i32
  %15 = srem i32 %14, 8
  %16 = icmp ne i32 %15, 0
  br i1 %16, label %17, label %20

17:                                               ; preds = %12, %8, %2
  br label %18

18:                                               ; preds = %17
  br label %19

19:                                               ; preds = %18
  store i32 -173, ptr %3, align 4
  br label %35

20:                                               ; preds = %12
  %21 = load i16, ptr %5, align 2, !tbaa !94
  %22 = sext i16 %21 to i32
  %23 = sdiv i32 %22, 8
  %24 = trunc i32 %23 to i16
  %25 = load ptr, ptr %4, align 8, !tbaa !24
  %26 = getelementptr inbounds nuw %struct.WOLFSSL_CTX, ptr %25, i32 0, i32 27
  store i16 %24, ptr %26, align 2, !tbaa !172
  %27 = load i16, ptr %5, align 2, !tbaa !94
  %28 = sext i16 %27 to i32
  %29 = sdiv i32 %28, 8
  %30 = trunc i32 %29 to i16
  %31 = load ptr, ptr %4, align 8, !tbaa !24
  %32 = getelementptr inbounds nuw %struct.WOLFSSL_CTX, ptr %31, i32 0, i32 17
  %33 = load ptr, ptr %32, align 8, !tbaa !26
  %34 = getelementptr inbounds nuw %struct.WOLFSSL_CERT_MANAGER, ptr %33, i32 0, i32 15
  store i16 %30, ptr %34, align 2, !tbaa !11
  store i32 1, ptr %3, align 4
  br label %35

35:                                               ; preds = %20, %19
  %36 = load i32, ptr %3, align 4
  ret i32 %36
}